; Function Attrs: mustprogress uwtable
define void @_ZN5folly12AsyncTimeoutC2Ev(ptr noundef nonnull align 8 dereferenceable(200) initializes((0, 8), (136, 164), (176, 200)) %0) unnamed_addr #1 align 2 personality ptr @__gxx_personality_v0 {
  store ptr getelementptr inbounds nuw inrange(-16, 24) (i8, ptr @_ZTVN5folly12AsyncTimeoutE, i64 16), ptr %0, align 8, !tbaa !7
  %2 = getelementptr inbounds nuw i8, ptr %0, i64 8
  %3 = getelementptr inbounds nuw i8, ptr %0, i64 136
  tail call void @llvm.memset.p0.i64(ptr noundef nonnull align 8 dereferenceable(28) %3, i8 0, i64 28, i1 false)
  %4 = getelementptr inbounds nuw i8, ptr %0, i64 176
  tail call void @llvm.memset.p0.i64(ptr noundef nonnull align 8 dereferenceable(24) %4, i8 0, i64 24, i1 false)
  invoke void @event_set(ptr noundef nonnull align 8 dereferenceable(168) %2, i32 noundef -1, i16 noundef signext 1, ptr noundef nonnull @_ZN5folly12AsyncTimeout16libeventCallbackEisPv, ptr noundef nonnull align 8 dereferenceable(200) %0)
          to label %_ZN5folly14EventBaseEvent12eb_event_setEisPFvisPvES1_.exit.i.i unwind label %5

_ZN5folly14EventBaseEvent12eb_event_setEisPFvisPvES1_.exit.i.i: ; preds = %1
  invoke void @_ZN5folly14EventBaseEvent10eb_ev_baseEPNS_9EventBaseE(ptr noundef nonnull align 8 dereferenceable(168) %2, ptr noundef null)
          to label %_ZN5folly12AsyncTimeoutC2EPNS_14TimeoutManagerE.exit unwind label %5

5:                                                ; preds = %_ZN5folly14EventBaseEvent12eb_event_setEisPFvisPvES1_.exit.i.i, %1
  %6 = landingpad { ptr, i32 }
          cleanup
  %7 = getelementptr inbounds nuw i8, ptr %0, i64 184
  tail call void @_ZNSt12__shared_ptrIN5folly14RequestContextELN9__gnu_cxx12_Lock_policyE2EED2Ev(ptr noundef nonnull align 8 dereferenceable(16) %7) #14
  tail call void @_ZN5folly14EventBaseEventD2Ev(ptr noundef nonnull align 8 dereferenceable(168) %2) #14
  resume { ptr, i32 } %6

_ZN5folly12AsyncTimeoutC2EPNS_14TimeoutManagerE.exit: ; preds = %_ZN5folly14EventBaseEvent12eb_event_setEisPFvisPvES1_.exit.i.i
  ret void
}